target datalayout = "e-m:e-p270:32:32-p271:32:32-p272:64:64-i64:64-i128:128-f80:128-n8:16:32:64-S128"
target triple = "x86_64-pc-linux-gnu"

%"class.std::__cxx11::basic_string" = type { %"struct.std::__cxx11::basic_string<char>::_Alloc_hider", i64, %union.anon }
%"struct.std::__cxx11::basic_string<char>::_Alloc_hider" = type { ptr }
%union.anon = type { i64, [8 x i8] }
%"class.mold::MappedFile" = type { %"class.std::__cxx11::basic_string", ptr, i64, i8, ptr, ptr, i8, i32 }

; Function Attrs: mustprogress nounwind
define dso_local void @_ZN4mold10MappedFile5unmapEv(ptr noundef nonnull align 8 dereferenceable(80) %0) #4 align 2 {
  %2 = alloca ptr, align 8
  store ptr %0, ptr %2, align 8, !tbaa !19
  %3 = load ptr, ptr %2, align 8
  %4 = getelementptr inbounds nuw %"class.mold::MappedFile", ptr %3, i32 0, i32 2
  %5 = load i64, ptr %4, align 8, !tbaa !24
  %6 = icmp eq i64 %5, 0
  br i1 %6, label %15, label %7

7:                                                ; preds = %1
  %8 = getelementptr inbounds nuw %"class.mold::MappedFile", ptr %3, i32 0, i32 4
  %9 = load ptr, ptr %8, align 8, !tbaa !37
  %10 = icmp ne ptr %9, null
  br i1 %10, label %15, label %11

11:                                               ; preds = %7
  %12 = getelementptr inbounds nuw %"class.mold::MappedFile", ptr %3, i32 0, i32 1
  %13 = load ptr, ptr %12, align 8, !tbaa !30
  %14 = icmp ne ptr %13, null
  br i1 %14, label %16, label %15

15:                                               ; preds = %11, %7, %1
  br label %23

16:                                               ; preds = %11
  %17 = getelementptr inbounds nuw %"class.mold::MappedFile", ptr %3, i32 0, i32 1
  %18 = load ptr, ptr %17, align 8, !tbaa !30
  %19 = getelementptr inbounds nuw %"class.mold::MappedFile", ptr %3, i32 0, i32 2
  %20 = load i64, ptr %19, align 8, !tbaa !24
  %21 = call i32 @munmap(ptr noundef %18, i64 noundef %20) #3
  %22 = getelementptr inbounds nuw %"class.mold::MappedFile", ptr %3, i32 0, i32 1
  store ptr null, ptr %22, align 8, !tbaa !30
  br label %23

23:                                               ; preds = %16, %15
  ret void
}