; Function Attrs: mustprogress nounwind
define dso_local void @_ZN4mold10MappedFile5unmapEv(ptr noundef nonnull align 8 captures(none) dereferenceable(80) %0) local_unnamed_addr #4 align 2 {
  %2 = getelementptr inbounds nuw i8, ptr %0, i64 40
  %3 = load i64, ptr %2, align 8, !tbaa !34
  %4 = icmp ne i64 %3, 0
  %5 = getelementptr inbounds nuw i8, ptr %0, i64 56
  %6 = load ptr, ptr %5, align 8
  %.not = icmp eq ptr %6, null
  %or.cond = select i1 %4, i1 %.not, i1 false
  br i1 %or.cond, label %7, label %12

7:                                                ; preds = %1
  %8 = getelementptr inbounds nuw i8, ptr %0, i64 32
  %9 = load ptr, ptr %8, align 8, !tbaa !35
  %.not2 = icmp eq ptr %9, null
  br i1 %.not2, label %12, label %10

10:                                               ; preds = %7
  %11 = tail call i32 @munmap(ptr noundef nonnull %9, i64 noundef %3) #21
  store ptr null, ptr %8, align 8, !tbaa !35
  br label %12

12:                                               ; preds = %1, %7, %10
  ret void
}